Certificate:
    Data:
        Version: 3 (0x2)
        Serial Number:
            01:00:00:00:00:00:00:00:00:02
        Signature Algorithm: ecdsa-with-SHA256
        Issuer: C=BY, ST=Минская область, L=Минск, O=My Test Organization, CN=Subordinate CA, street=Unknown street, description=Test Subordinate Dev-сертификат
        Validity
            Not Before: Aug 27 19:11:58 2024 GMT
            Not After : Aug 27 19:11:58 2027 GMT
        Subject: C=BY, CN=*.your-domain.local, description=TLS-client Alice, default profile
        Subject Public Key Info:
            Public Key Algorithm: id-ecPublicKey
                Public-Key: (256 bit)
                pub:
                    04:e7:0c:ad:b7:9f:cd:6e:f0:49:a9:8a:67:af:bc:
                    fd:ca:7f:a7:74:8d:7b:12:6c:9b:83:5f:cf:d3:b4:
                    09:e8:64:51:49:7e:a0:c4:6c:2b:0a:0b:91:79:26:
                    84:7f:8b:f5:e3:fa:4c:68:08:ab:68:50:7d:23:e2:
                    6a:33:03:11:44
                ASN1 OID: prime256v1
                NIST CURVE: P-256
        X509v3 extensions:
            X509v3 Subject Key Identifier: 
                A1:BE:16:78:B4:13:3D:B6:78:D5:19:57:5B:6C:66:FA:D7:04:51:57
            X509v3 Authority Key Identifier: 
                45:BA:08:E1:22:C3:9C:97:32:B2:FB:03:6E:54:0B:79:D6:15:09:3D
            X509v3 Basic Constraints: 
                CA:FALSE
            X509v3 Key Usage: 
                Digital Signature, Key Encipherment, Data Encipherment, Key Agreement
            X509v3 Extended Key Usage: 
                TLS Web Server Authentication
    Signature Algorithm: ecdsa-with-SHA256
    Signature Value:
        30:45:02:21:00:d1:31:94:0e:e1:94:5c:27:bf:69:23:43:58:
        03:ab:c7:7c:e5:22:2e:d9:da:e1:ac:4b:5c:58:69:cb:be:36:
        a8:02:20:36:9f:e3:e0:5c:37:18:26:b1:3b:4c:79:f9:db:23:
        d9:1d:a4:3a:6e:b3:c2:22:14:61:9f:28:df:40:0b:58:c0
-----BEGIN CERTIFICATE-----
MIICjjCCAjSgAwIBAgIKAQAAAAAAAAAAAjAKBggqhkjOPQQDAjCBzzELMAkGA1UE
BhMCQlkxJjAkBgNVBAgMHdCc0LjQvdGB0LrQsNGPINC+0LHQu9Cw0YHRgtGMMRMw
EQYDVQQHDArQnNC40L3RgdC6MR0wGwYDVQQKDBRNeSBUZXN0IE9yZ2FuaXphdGlv
bjEXMBUGA1UEAwwOU3Vib3JkaW5hdGUgQ0ExFzAVBgNVBAkMDlVua25vd24gc3Ry
ZWV0MTIwMAYDVQQNDClUZXN0IFN1Ym9yZGluYXRlIERldi3RgdC10YDRgtC40YTQ
uNC60LDRgjAeFw0yNDA4MjcxOTExNThaFw0yNzA4MjcxOTExNThaMFcxCzAJBgNV
BAYTAkJZMRwwGgYDVQQDDBMqLnlvdXItZG9tYWluLmxvY2FsMSowKAYDVQQNDCFU
TFMtY2xpZW50IEFsaWNlLCBkZWZhdWx0IHByb2ZpbGUwWTATBgcqhkjOPQIBBggq
hkjOPQMBBwNCAATnDK23n81u8EmpimevvP3Kf6d0jXsSbJuDX8/TtAnoZFFJfqDE
bCsKC5F5JoR/i/Xj+kxoCKtoUH0j4mozAxFEo28wbTAdBgNVHQ4EFgQUob4WeLQT
PbZ41RlXW2xm+tcEUVcwHwYDVR0jBBgwFoAURboI4SLDnJcysvsDblQLedYVCT0w
CQYDVR0TBAIwADALBgNVHQ8EBAMCA7gwEwYDVR0lBAwwCgYIKwYBBQUHAwEwCgYI
KoZIzj0EAwIDSAAwRQIhANExlA7hlFwnv2kjQ1gDq8d85SIu2drhrEtcWGnLvjao
AiA2n+PgXDcYJrE7THn52yPZHaQ6brPCIhRhnyjfQAtYwA==
-----END CERTIFICATE-----
