Certificate:
    Data:
        Version: 3 (0x2)
        Serial Number:
            01:00:00:00:00:00:00:00:00:03
        Signature Algorithm: ecdsa-with-SHA256
        Issuer: C=BY, ST=Минская область, L=Минск, O=My Test Organization, CN=Subordinate CA, street=Unknown street, description=Test Subordinate Dev-сертификат
        Validity
            Not Before: Aug 27 19:12:01 2024 GMT
            Not After : Aug 27 19:12:01 2027 GMT
        Subject: C=BY, CN=*.your-domain.local, description=TLS-client Alice, default profile
        Subject Public Key Info:
            Public Key Algorithm: id-ecPublicKey
                Public-Key: (256 bit)
                pub:
                    04:06:68:31:1e:03:78:ce:22:9a:1a:6b:a7:58:87:
                    8a:4f:07:59:4a:53:43:5b:ab:51:b2:3d:a8:ae:56:
                    0c:da:5b:06:62:6d:a8:1e:20:bd:c7:db:da:df:bd:
                    42:ad:47:ba:b7:7a:f0:95:ac:e9:3a:23:58:87:53:
                    74:ec:28:d9:8d
                ASN1 OID: prime256v1
                NIST CURVE: P-256
        X509v3 extensions:
            X509v3 Subject Key Identifier: 
                9F:58:58:EE:28:43:44:54:38:EB:EC:64:15:5F:D8:58:81:A3:05:A5
            X509v3 Authority Key Identifier: 
                45:BA:08:E1:22:C3:9C:97:32:B2:FB:03:6E:54:0B:79:D6:15:09:3D
            X509v3 Basic Constraints: 
                CA:FALSE
            X509v3 Key Usage: 
                Digital Signature, Key Encipherment, Data Encipherment, Key Agreement
            X509v3 Extended Key Usage: 
                TLS Web Server Authentication
    Signature Algorithm: ecdsa-with-SHA256
    Signature Value:
        30:45:02:20:11:d2:1b:0f:9b:0f:76:8b:5f:ea:14:00:90:7a:
        b9:fa:6a:7f:10:68:0b:79:00:42:a2:c1:a1:3d:c6:b4:70:8a:
        02:21:00:9e:b3:04:ef:83:03:11:9f:3d:a1:ff:fe:7f:fa:6e:
        87:99:c5:0f:76:0c:1b:a6:dc:78:4e:57:7d:d3:90:c2:c0
-----BEGIN CERTIFICATE-----
MIICjjCCAjSgAwIBAgIKAQAAAAAAAAAAAzAKBggqhkjOPQQDAjCBzzELMAkGA1UE
BhMCQlkxJjAkBgNVBAgMHdCc0LjQvdGB0LrQsNGPINC+0LHQu9Cw0YHRgtGMMRMw
EQYDVQQHDArQnNC40L3RgdC6MR0wGwYDVQQKDBRNeSBUZXN0IE9yZ2FuaXphdGlv
bjEXMBUGA1UEAwwOU3Vib3JkaW5hdGUgQ0ExFzAVBgNVBAkMDlVua25vd24gc3Ry
ZWV0MTIwMAYDVQQNDClUZXN0IFN1Ym9yZGluYXRlIERldi3RgdC10YDRgtC40YTQ
uNC60LDRgjAeFw0yNDA4MjcxOTEyMDFaFw0yNzA4MjcxOTEyMDFaMFcxCzAJBgNV
BAYTAkJZMRwwGgYDVQQDDBMqLnlvdXItZG9tYWluLmxvY2FsMSowKAYDVQQNDCFU
TFMtY2xpZW50IEFsaWNlLCBkZWZhdWx0IHByb2ZpbGUwWTATBgcqhkjOPQIBBggq
hkjOPQMBBwNCAAQGaDEeA3jOIpoaa6dYh4pPB1lKU0Nbq1GyPaiuVgzaWwZibage
IL3H29rfvUKtR7q3evCVrOk6I1iHU3TsKNmNo28wbTAdBgNVHQ4EFgQUn1hY7ihD
RFQ46+xkFV/YWIGjBaUwHwYDVR0jBBgwFoAURboI4SLDnJcysvsDblQLedYVCT0w
CQYDVR0TBAIwADALBgNVHQ8EBAMCA7gwEwYDVR0lBAwwCgYIKwYBBQUHAwEwCgYI
KoZIzj0EAwIDSAAwRQIgEdIbD5sPdotf6hQAkHq5+mp/EGgLeQBCosGhPca0cIoC
IQCeswTvgwMRnz2h//5/+m6HmcUPdgwbptx4Tld905DCwA==
-----END CERTIFICATE-----
