Certificate:
    Data:
        Version: 3 (0x2)
        Serial Number:
            01:00:00:00:00:00:00:00:00:00
        Signature Algorithm: ecdsa-with-SHA256
        Issuer: C=BY, ST=Минская область, L=Минск, O=My Test Organization, CN=Subordinate CA, street=Unknown street, description=Test Subordinate Dev-сертификат
        Validity
            Not Before: Aug 27 19:11:47 2024 GMT
            Not After : Aug 27 19:11:47 2027 GMT
        Subject: C=BY, CN=Bob ( World Famous person ), description=TLS-client, default profile
        Subject Public Key Info:
            Public Key Algorithm: id-ecPublicKey
                Public-Key: (256 bit)
                pub:
                    04:62:eb:e1:fc:7a:bb:10:43:95:86:ec:96:7d:7a:
                    cf:3e:60:85:13:16:75:74:04:35:6f:74:de:d1:fe:
                    5f:7d:f4:8b:cf:2a:e2:a4:53:a6:32:a0:33:0e:d1:
                    5e:f6:4b:f9:e5:18:8c:05:38:52:ed:09:98:ec:6a:
                    96:1b:8c:0a:ed
                ASN1 OID: prime256v1
                NIST CURVE: P-256
        X509v3 extensions:
            X509v3 Subject Key Identifier: 
                78:0F:3B:39:AC:54:A9:D3:D8:49:6B:02:CD:1C:CD:03:B8:55:7C:71
            X509v3 Authority Key Identifier: 
                45:BA:08:E1:22:C3:9C:97:32:B2:FB:03:6E:54:0B:79:D6:15:09:3D
            X509v3 Basic Constraints: 
                CA:FALSE
            X509v3 Key Usage: 
                Digital Signature, Key Encipherment, Data Encipherment, Key Agreement
            X509v3 Extended Key Usage: 
                TLS Web Client Authentication
    Signature Algorithm: ecdsa-with-SHA256
    Signature Value:
        30:45:02:20:50:d9:85:0a:e9:90:46:f2:f7:9f:b7:06:ca:cd:
        00:d3:60:32:cc:8d:ec:22:87:74:cf:6a:48:68:df:e4:db:18:
        02:21:00:f9:94:42:a2:c3:92:9a:a4:ce:a7:5a:47:08:88:cd:
        dc:3b:d3:a3:80:26:08:94:5d:13:fe:86:8d:b9:85:25:10
-----BEGIN CERTIFICATE-----
MIICkDCCAjagAwIBAgIKAQAAAAAAAAAAADAKBggqhkjOPQQDAjCBzzELMAkGA1UE
BhMCQlkxJjAkBgNVBAgMHdCc0LjQvdGB0LrQsNGPINC+0LHQu9Cw0YHRgtGMMRMw
EQYDVQQHDArQnNC40L3RgdC6MR0wGwYDVQQKDBRNeSBUZXN0IE9yZ2FuaXphdGlv
bjEXMBUGA1UEAwwOU3Vib3JkaW5hdGUgQ0ExFzAVBgNVBAkMDlVua25vd24gc3Ry
ZWV0MTIwMAYDVQQNDClUZXN0IFN1Ym9yZGluYXRlIERldi3RgdC10YDRgtC40YTQ
uNC60LDRgjAeFw0yNDA4MjcxOTExNDdaFw0yNzA4MjcxOTExNDdaMFkxCzAJBgNV
BAYTAkJZMSQwIgYDVQQDDBtCb2IgKCBXb3JsZCBGYW1vdXMgcGVyc29uICkxJDAi
BgNVBA0MG1RMUy1jbGllbnQsIGRlZmF1bHQgcHJvZmlsZTBZMBMGByqGSM49AgEG
CCqGSM49AwEHA0IABGLr4fx6uxBDlYbsln16zz5ghRMWdXQENW903tH+X330i88q
4qRTpjKgMw7RXvZL+eUYjAU4Uu0JmOxqlhuMCu2jbzBtMB0GA1UdDgQWBBR4Dzs5
rFSp09hJawLNHM0DuFV8cTAfBgNVHSMEGDAWgBRFugjhIsOclzKy+wNuVAt51hUJ
PTAJBgNVHRMEAjAAMAsGA1UdDwQEAwIDuDATBgNVHSUEDDAKBggrBgEFBQcDAjAK
BggqhkjOPQQDAgNIADBFAiBQ2YUK6ZBG8veftwbKzQDTYDLMjewih3TPakho3+Tb
GAIhAPmUQqLDkpqkzqdaRwiIzdw706OAJgiUXRP+ho25hSUQ
-----END CERTIFICATE-----
