Certificate:
    Data:
        Version: 3 (0x2)
        Serial Number:
            01:00:00:00:00:00:00:00:00:01
        Signature Algorithm: ecdsa-with-SHA256
        Issuer: C=BY, ST=Минская область, L=Минск, O=My Test Organization, CN=Subordinate CA, street=Unknown street, description=Test Subordinate Dev-сертификат
        Validity
            Not Before: Aug 27 19:11:51 2024 GMT
            Not After : Aug 27 19:11:51 2027 GMT
        Subject: C=BY, CN=Bob ( World Famous person ), description=TLS-client, default profile
        Subject Public Key Info:
            Public Key Algorithm: id-ecPublicKey
                Public-Key: (256 bit)
                pub:
                    04:c7:15:2b:71:03:e9:80:11:25:08:88:61:46:b0:
                    24:a9:16:72:83:3f:c2:67:06:49:64:fc:ec:04:86:
                    2d:fd:12:a2:17:60:e4:56:5b:f4:14:52:4e:23:6e:
                    de:8b:09:f2:f4:03:b8:ac:8e:ed:1a:1f:ba:b5:19:
                    5d:04:18:65:b2
                ASN1 OID: prime256v1
                NIST CURVE: P-256
        X509v3 extensions:
            X509v3 Subject Key Identifier: 
                E3:87:BD:2A:7C:35:C5:A1:5D:8A:3C:6E:F1:CB:6E:9A:95:1B:E4:DA
            X509v3 Authority Key Identifier: 
                45:BA:08:E1:22:C3:9C:97:32:B2:FB:03:6E:54:0B:79:D6:15:09:3D
            X509v3 Basic Constraints: 
                CA:FALSE
            X509v3 Key Usage: 
                Digital Signature, Key Encipherment, Data Encipherment, Key Agreement
            X509v3 Extended Key Usage: 
                TLS Web Client Authentication
    Signature Algorithm: ecdsa-with-SHA256
    Signature Value:
        30:46:02:21:00:e9:9d:d2:7e:60:04:af:9e:5a:38:0e:21:00:
        fa:10:fc:6d:c9:e7:02:b3:64:7d:8b:92:50:03:18:de:99:e8:
        63:02:21:00:88:13:a5:12:3d:fb:5e:bb:e5:93:5c:2b:b4:9d:
        81:84:1b:ae:b5:4d:51:2e:96:b9:56:73:44:ab:e1:14:a4:fc
-----BEGIN CERTIFICATE-----
MIICkTCCAjagAwIBAgIKAQAAAAAAAAAAATAKBggqhkjOPQQDAjCBzzELMAkGA1UE
BhMCQlkxJjAkBgNVBAgMHdCc0LjQvdGB0LrQsNGPINC+0LHQu9Cw0YHRgtGMMRMw
EQYDVQQHDArQnNC40L3RgdC6MR0wGwYDVQQKDBRNeSBUZXN0IE9yZ2FuaXphdGlv
bjEXMBUGA1UEAwwOU3Vib3JkaW5hdGUgQ0ExFzAVBgNVBAkMDlVua25vd24gc3Ry
ZWV0MTIwMAYDVQQNDClUZXN0IFN1Ym9yZGluYXRlIERldi3RgdC10YDRgtC40YTQ
uNC60LDRgjAeFw0yNDA4MjcxOTExNTFaFw0yNzA4MjcxOTExNTFaMFkxCzAJBgNV
BAYTAkJZMSQwIgYDVQQDDBtCb2IgKCBXb3JsZCBGYW1vdXMgcGVyc29uICkxJDAi
BgNVBA0MG1RMUy1jbGllbnQsIGRlZmF1bHQgcHJvZmlsZTBZMBMGByqGSM49AgEG
CCqGSM49AwEHA0IABMcVK3ED6YARJQiIYUawJKkWcoM/wmcGSWT87ASGLf0Sohdg
5FZb9BRSTiNu3osJ8vQDuKyO7RofurUZXQQYZbKjbzBtMB0GA1UdDgQWBBTjh70q
fDXFoV2KPG7xy26alRvk2jAfBgNVHSMEGDAWgBRFugjhIsOclzKy+wNuVAt51hUJ
PTAJBgNVHRMEAjAAMAsGA1UdDwQEAwIDuDATBgNVHSUEDDAKBggrBgEFBQcDAjAK
BggqhkjOPQQDAgNJADBGAiEA6Z3SfmAEr55aOA4hAPoQ/G3J5wKzZH2LklADGN6Z
6GMCIQCIE6USPfteu+WTXCu0nYGEG661TVEulrlWc0Sr4RSk/A==
-----END CERTIFICATE-----
